target datalayout = "e-m:e-p270:32:32-p271:32:32-p272:64:64-i64:64-i128:128-f80:128-n8:16:32:64-S128"
target triple = "x86_64-pc-linux-gnu"

%struct.Abc_Frame_t_ = type { ptr, ptr, ptr, ptr, ptr, ptr, ptr, ptr, ptr, ptr, i32, i32, i32, i32, i32, ptr, float, float, i32, i32, ptr, ptr, ptr, double, double, ptr, ptr, ptr, ptr, ptr, ptr, ptr, ptr, ptr, ptr, ptr, ptr, float, ptr, i32, ptr, ptr, ptr, ptr, ptr, i32, i32, i32, i32, i32, i32, ptr, ptr, ptr, ptr, ptr, ptr, i32, i32, ptr, ptr, ptr, ptr, ptr, ptr, ptr, ptr, ptr, ptr, ptr, ptr, ptr, ptr, ptr, ptr, ptr, ptr, ptr, ptr, ptr, ptr, ptr, ptr, ptr, ptr, ptr, ptr, ptr, ptr }
%struct.Abc_Ntk_t_ = type { i32, i32, ptr, ptr, ptr, ptr, ptr, ptr, ptr, ptr, ptr, ptr, ptr, [11 x i32], i32, i32, i32, i32, ptr, i32, ptr, ptr, i32, i32, i32, double, i32, %struct.Vec_Int_t_, ptr, ptr, ptr, ptr, ptr, float, i32, ptr, ptr, ptr, ptr, ptr, ptr, ptr, ptr, ptr, ptr, ptr, ptr, ptr, ptr, ptr, ptr, ptr, ptr, ptr, ptr, ptr, ptr }
%struct.Vec_Int_t_ = type { i32, i32, ptr }

@globalUtilOptind = external global i32, align 4
@.str.113 = private unnamed_addr constant [4 x i8] c"yes\00", align 1
@.str.114 = private unnamed_addr constant [3 x i8] c"no\00", align 1
@.str.142 = private unnamed_addr constant [16 x i8] c"Empty network.\0A\00", align 1
@.str.233 = private unnamed_addr constant [34 x i8] c"\09-h     : print the help massage\0A\00", align 1
@.str.234 = private unnamed_addr constant [41 x i8] c"\09file   : the name of the file to write\0A\00", align 1
@.str.291 = private unnamed_addr constant [60 x i8] c"Command line switch \22-K\22 should be followed by an integer.\0A\00", align 1
@.str.360 = private unnamed_addr constant [7 x i8] c"Kfamnh\00", align 1
@.str.361 = private unnamed_addr constant [47 x i8] c"usage: write_verilog [-K num] [-famnh] <file>\0A\00", align 1
@.str.362 = private unnamed_addr constant [56 x i8] c"\09         writes the current network in Verilog format\0A\00", align 1
@.str.363 = private unnamed_addr constant [90 x i8] c"\09-K num : write the network using instances of K-LUTs (2 <= K <= 6) [default = not used]\0A\00", align 1
@.str.364 = private unnamed_addr constant [52 x i8] c"\09-f     : toggle using fixed format [default = %s]\0A\00", align 1
@.str.365 = private unnamed_addr constant [93 x i8] c"\09-a     : toggle writing expressions with only ANDs (without XORs and MUXes) [default = %s]\0A\00", align 1
@.str.366 = private unnamed_addr constant [60 x i8] c"\09-m     : toggle writing additional modules [default = %s]\0A\00", align 1
@.str.367 = private unnamed_addr constant [80 x i8] c"\09-n     : toggle writing generic PO names and assign-statements [default = %s]\0A\00", align 1

; Function Attrs: inlinehint nounwind uwtable
define internal i32 @Abc_NtkHasMapping(ptr noundef %0) #3 {
  %2 = alloca ptr, align 8
  store ptr %0, ptr %2, align 8, !tbaa !18
  %3 = load ptr, ptr %2, align 8, !tbaa !18
  %4 = getelementptr inbounds nuw %struct.Abc_Ntk_t_, ptr %3, i32 0, i32 1
  %5 = load i32, ptr %4, align 4, !tbaa !173
  %6 = icmp eq i32 %5, 4
  %7 = zext i1 %6 to i32
  ret i32 %7
}

; Function Attrs: inlinehint nounwind uwtable
define internal i32 @Abc_NtkHasAig(ptr noundef %0) #3 {
  %2 = alloca ptr, align 8
  store ptr %0, ptr %2, align 8, !tbaa !18
  %3 = load ptr, ptr %2, align 8, !tbaa !18
  %4 = getelementptr inbounds nuw %struct.Abc_Ntk_t_, ptr %3, i32 0, i32 1
  %5 = load i32, ptr %4, align 4, !tbaa !173
  %6 = icmp eq i32 %5, 3
  %7 = zext i1 %6 to i32
  ret i32 %7
}

; Function Attrs: inlinehint nounwind willreturn memory(read) uwtable
define available_externally i32 @atoi(ptr noundef nonnull %0) #6 {
  %2 = alloca ptr, align 8
  store ptr %0, ptr %2, align 8, !tbaa !14
  %3 = load ptr, ptr %2, align 8, !tbaa !14
  %4 = call i64 @strtol(ptr noundef %3, ptr noundef null, i32 noundef 10) #11
  %5 = trunc i64 %4 to i32
  ret i32 %5
}

; Function Attrs: nounwind uwtable
define internal i32 @IoCommandWriteVerilog(ptr noundef %0, i32 noundef %1, ptr noundef %2) #0 {
  %4 = alloca i32, align 4
  %5 = alloca ptr, align 8
  %6 = alloca i32, align 4
  %7 = alloca ptr, align 8
  %8 = alloca ptr, align 8
  %9 = alloca i32, align 4
  %10 = alloca i32, align 4
  %11 = alloca i32, align 4
  %12 = alloca i32, align 4
  %13 = alloca i32, align 4
  %14 = alloca i32, align 4
  %15 = alloca i32, align 4
  %16 = alloca ptr, align 8
  store ptr %0, ptr %5, align 8, !tbaa !3
  store i32 %1, ptr %6, align 4, !tbaa !8
  store ptr %2, ptr %7, align 8, !tbaa !10
  call void @llvm.lifetime.start.p0(i64 8, ptr %8) #11
  call void @llvm.lifetime.start.p0(i64 4, ptr %9) #11
  call void @llvm.lifetime.start.p0(i64 4, ptr %10) #11
  store i32 0, ptr %10, align 4, !tbaa !8
  call void @llvm.lifetime.start.p0(i64 4, ptr %11) #11
  store i32 0, ptr %11, align 4, !tbaa !8
  call void @llvm.lifetime.start.p0(i64 4, ptr %12) #11
  store i32 0, ptr %12, align 4, !tbaa !8
  call void @llvm.lifetime.start.p0(i64 4, ptr %13) #11
  store i32 0, ptr %13, align 4, !tbaa !8
  call void @llvm.lifetime.start.p0(i64 4, ptr %14) #11
  store i32 -1, ptr %14, align 4, !tbaa !8
  call void (...) @Extra_UtilGetoptReset()
  br label %17

17:                                               ; preds = %59, %3
  %18 = load i32, ptr %6, align 4, !tbaa !8
  %19 = load ptr, ptr %7, align 8, !tbaa !10
  %20 = call i32 @Extra_UtilGetopt(i32 noundef %18, ptr noundef %19, ptr noundef @.str.360)
  store i32 %20, ptr %9, align 4, !tbaa !8
  %21 = icmp ne i32 %20, -1
  br i1 %21, label %22, label %60

22:                                               ; preds = %17
  %23 = load i32, ptr %9, align 4, !tbaa !8
  switch i32 %23, label %58 [
    i32 75, label %24
    i32 102, label %45
    i32 97, label %48
    i32 109, label %51
    i32 110, label %54
    i32 104, label %57
  ]

24:                                               ; preds = %22
  %25 = load i32, ptr @globalUtilOptind, align 4, !tbaa !8
  %26 = load i32, ptr %6, align 4, !tbaa !8
  %27 = icmp sge i32 %25, %26
  br i1 %27, label %28, label %29

28:                                               ; preds = %24
  call void (i32, ptr, ...) @Abc_Print(i32 noundef -1, ptr noundef @.str.291)
  br label %122

29:                                               ; preds = %24
  %30 = load ptr, ptr %7, align 8, !tbaa !10
  %31 = load i32, ptr @globalUtilOptind, align 4, !tbaa !8
  %32 = sext i32 %31 to i64
  %33 = getelementptr inbounds ptr, ptr %30, i64 %32
  %34 = load ptr, ptr %33, align 8, !tbaa !14
  %35 = call i32 @atoi(ptr noundef %34) #12
  store i32 %35, ptr %14, align 4, !tbaa !8
  %36 = load i32, ptr @globalUtilOptind, align 4, !tbaa !8
  %37 = add nsw i32 %36, 1
  store i32 %37, ptr @globalUtilOptind, align 4, !tbaa !8
  %38 = load i32, ptr %14, align 4, !tbaa !8
  %39 = icmp slt i32 %38, 2
  br i1 %39, label %43, label %40

40:                                               ; preds = %29
  %41 = load i32, ptr %14, align 4, !tbaa !8
  %42 = icmp sgt i32 %41, 6
  br i1 %42, label %43, label %44

43:                                               ; preds = %40, %29
  br label %122

44:                                               ; preds = %40
  br label %59

45:                                               ; preds = %22
  %46 = load i32, ptr %10, align 4, !tbaa !8
  %47 = xor i32 %46, 1
  store i32 %47, ptr %10, align 4, !tbaa !8
  br label %59

48:                                               ; preds = %22
  %49 = load i32, ptr %11, align 4, !tbaa !8
  %50 = xor i32 %49, 1
  store i32 %50, ptr %11, align 4, !tbaa !8
  br label %59

51:                                               ; preds = %22
  %52 = load i32, ptr %12, align 4, !tbaa !8
  %53 = xor i32 %52, 1
  store i32 %53, ptr %12, align 4, !tbaa !8
  br label %59

54:                                               ; preds = %22
  %55 = load i32, ptr %13, align 4, !tbaa !8
  %56 = xor i32 %55, 1
  store i32 %56, ptr %13, align 4, !tbaa !8
  br label %59

57:                                               ; preds = %22
  br label %122

58:                                               ; preds = %22
  br label %122

59:                                               ; preds = %54, %51, %48, %45, %44
  br label %17, !llvm.loop !91

60:                                               ; preds = %17
  %61 = load ptr, ptr %5, align 8, !tbaa !3
  %62 = getelementptr inbounds nuw %struct.Abc_Frame_t_, ptr %61, i32 0, i32 6
  %63 = load ptr, ptr %62, align 8, !tbaa !44
  %64 = icmp eq ptr %63, null
  br i1 %64, label %65, label %70

65:                                               ; preds = %60
  %66 = load ptr, ptr %5, align 8, !tbaa !3
  %67 = getelementptr inbounds nuw %struct.Abc_Frame_t_, ptr %66, i32 0, i32 20
  %68 = load ptr, ptr %67, align 8, !tbaa !45
  %69 = call i32 (ptr, ptr, ...) @fprintf(ptr noundef %68, ptr noundef @.str.142) #11
  store i32 0, ptr %4, align 4
  store i32 1, ptr %15, align 4
  br label %172

70:                                               ; preds = %60
  %71 = load i32, ptr %6, align 4, !tbaa !8
  %72 = load i32, ptr @globalUtilOptind, align 4, !tbaa !8
  %73 = add nsw i32 %72, 1
  %74 = icmp ne i32 %71, %73
  br i1 %74, label %75, label %76

75:                                               ; preds = %70
  br label %122

76:                                               ; preds = %70
  %77 = load i32, ptr %10, align 4, !tbaa !8
  %78 = icmp ne i32 %77, 0
  br i1 %78, label %79, label %80

79:                                               ; preds = %76
  store i32 6, ptr %14, align 4, !tbaa !8
  br label %80

80:                                               ; preds = %79, %76
  %81 = load ptr, ptr %7, align 8, !tbaa !10
  %82 = load i32, ptr @globalUtilOptind, align 4, !tbaa !8
  %83 = sext i32 %82 to i64
  %84 = getelementptr inbounds ptr, ptr %81, i64 %83
  %85 = load ptr, ptr %84, align 8, !tbaa !14
  store ptr %85, ptr %8, align 8, !tbaa !14
  %86 = load i32, ptr %14, align 4, !tbaa !8
  %87 = icmp sge i32 %86, 2
  br i1 %87, label %88, label %100

88:                                               ; preds = %80
  %89 = load i32, ptr %14, align 4, !tbaa !8
  %90 = icmp sle i32 %89, 6
  br i1 %90, label %91, label %100

91:                                               ; preds = %88
  %92 = load ptr, ptr %5, align 8, !tbaa !3
  %93 = getelementptr inbounds nuw %struct.Abc_Frame_t_, ptr %92, i32 0, i32 6
  %94 = load ptr, ptr %93, align 8, !tbaa !44
  %95 = load ptr, ptr %8, align 8, !tbaa !14
  %96 = load i32, ptr %14, align 4, !tbaa !8
  %97 = load i32, ptr %10, align 4, !tbaa !8
  %98 = load i32, ptr %12, align 4, !tbaa !8
  %99 = load i32, ptr %13, align 4, !tbaa !8
  call void @Io_WriteVerilogLut(ptr noundef %94, ptr noundef %95, i32 noundef %96, i32 noundef %97, i32 noundef %98, i32 noundef %99)
  br label %121

100:                                              ; preds = %88, %80
  call void @llvm.lifetime.start.p0(i64 8, ptr %16) #11
  %101 = load ptr, ptr %5, align 8, !tbaa !3
  %102 = getelementptr inbounds nuw %struct.Abc_Frame_t_, ptr %101, i32 0, i32 6
  %103 = load ptr, ptr %102, align 8, !tbaa !44
  %104 = call ptr @Abc_NtkToNetlist(ptr noundef %103)
  store ptr %104, ptr %16, align 8, !tbaa !18
  %105 = load ptr, ptr %16, align 8, !tbaa !18
  %106 = call i32 @Abc_NtkHasAig(ptr noundef %105)
  %107 = icmp ne i32 %106, 0
  br i1 %107, label %115, label %108

108:                                              ; preds = %100
  %109 = load ptr, ptr %16, align 8, !tbaa !18
  %110 = call i32 @Abc_NtkHasMapping(ptr noundef %109)
  %111 = icmp ne i32 %110, 0
  br i1 %111, label %115, label %112

112:                                              ; preds = %108
  %113 = load ptr, ptr %16, align 8, !tbaa !18
  %114 = call i32 @Abc_NtkToAig(ptr noundef %113)
  br label %115

115:                                              ; preds = %112, %108, %100
  %116 = load ptr, ptr %16, align 8, !tbaa !18
  %117 = load ptr, ptr %8, align 8, !tbaa !14
  %118 = load i32, ptr %11, align 4, !tbaa !8
  %119 = load i32, ptr %13, align 4, !tbaa !8
  call void @Io_WriteVerilog(ptr noundef %116, ptr noundef %117, i32 noundef %118, i32 noundef %119)
  %120 = load ptr, ptr %16, align 8, !tbaa !18
  call void @Abc_NtkDelete(ptr noundef %120)
  call void @llvm.lifetime.end.p0(i64 8, ptr %16) #11
  br label %121

121:                                              ; preds = %115, %91
  store i32 0, ptr %4, align 4
  store i32 1, ptr %15, align 4
  br label %172

122:                                              ; preds = %75, %58, %57, %43, %28
  %123 = load ptr, ptr %5, align 8, !tbaa !3
  %124 = getelementptr inbounds nuw %struct.Abc_Frame_t_, ptr %123, i32 0, i32 21
  %125 = load ptr, ptr %124, align 8, !tbaa !24
  %126 = call i32 (ptr, ptr, ...) @fprintf(ptr noundef %125, ptr noundef @.str.361) #11
  %127 = load ptr, ptr %5, align 8, !tbaa !3
  %128 = getelementptr inbounds nuw %struct.Abc_Frame_t_, ptr %127, i32 0, i32 21
  %129 = load ptr, ptr %128, align 8, !tbaa !24
  %130 = call i32 (ptr, ptr, ...) @fprintf(ptr noundef %129, ptr noundef @.str.362) #11
  %131 = load ptr, ptr %5, align 8, !tbaa !3
  %132 = getelementptr inbounds nuw %struct.Abc_Frame_t_, ptr %131, i32 0, i32 21
  %133 = load ptr, ptr %132, align 8, !tbaa !24
  %134 = call i32 (ptr, ptr, ...) @fprintf(ptr noundef %133, ptr noundef @.str.363) #11
  %135 = load ptr, ptr %5, align 8, !tbaa !3
  %136 = getelementptr inbounds nuw %struct.Abc_Frame_t_, ptr %135, i32 0, i32 21
  %137 = load ptr, ptr %136, align 8, !tbaa !24
  %138 = load i32, ptr %10, align 4, !tbaa !8
  %139 = icmp ne i32 %138, 0
  %140 = select i1 %139, ptr @.str.113, ptr @.str.114
  %141 = call i32 (ptr, ptr, ...) @fprintf(ptr noundef %137, ptr noundef @.str.364, ptr noundef %140) #11
  %142 = load ptr, ptr %5, align 8, !tbaa !3
  %143 = getelementptr inbounds nuw %struct.Abc_Frame_t_, ptr %142, i32 0, i32 21
  %144 = load ptr, ptr %143, align 8, !tbaa !24
  %145 = load i32, ptr %11, align 4, !tbaa !8
  %146 = icmp ne i32 %145, 0
  %147 = select i1 %146, ptr @.str.113, ptr @.str.114
  %148 = call i32 (ptr, ptr, ...) @fprintf(ptr noundef %144, ptr noundef @.str.365, ptr noundef %147) #11
  %149 = load ptr, ptr %5, align 8, !tbaa !3
  %150 = getelementptr inbounds nuw %struct.Abc_Frame_t_, ptr %149, i32 0, i32 21
  %151 = load ptr, ptr %150, align 8, !tbaa !24
  %152 = load i32, ptr %12, align 4, !tbaa !8
  %153 = icmp ne i32 %152, 0
  %154 = xor i1 %153, true
  %155 = select i1 %154, ptr @.str.113, ptr @.str.114
  %156 = call i32 (ptr, ptr, ...) @fprintf(ptr noundef %151, ptr noundef @.str.366, ptr noundef %155) #11
  %157 = load ptr, ptr %5, align 8, !tbaa !3
  %158 = getelementptr inbounds nuw %struct.Abc_Frame_t_, ptr %157, i32 0, i32 21
  %159 = load ptr, ptr %158, align 8, !tbaa !24
  %160 = load i32, ptr %13, align 4, !tbaa !8
  %161 = icmp ne i32 %160, 0
  %162 = select i1 %161, ptr @.str.113, ptr @.str.114
  %163 = call i32 (ptr, ptr, ...) @fprintf(ptr noundef %159, ptr noundef @.str.367, ptr noundef %162) #11
  %164 = load ptr, ptr %5, align 8, !tbaa !3
  %165 = getelementptr inbounds nuw %struct.Abc_Frame_t_, ptr %164, i32 0, i32 21
  %166 = load ptr, ptr %165, align 8, !tbaa !24
  %167 = call i32 (ptr, ptr, ...) @fprintf(ptr noundef %166, ptr noundef @.str.233) #11
  %168 = load ptr, ptr %5, align 8, !tbaa !3
  %169 = getelementptr inbounds nuw %struct.Abc_Frame_t_, ptr %168, i32 0, i32 21
  %170 = load ptr, ptr %169, align 8, !tbaa !24
  %171 = call i32 (ptr, ptr, ...) @fprintf(ptr noundef %170, ptr noundef @.str.234) #11
  store i32 1, ptr %4, align 4
  store i32 1, ptr %15, align 4
  br label %172

172:                                              ; preds = %122, %121, %65
  call void @llvm.lifetime.end.p0(i64 4, ptr %14) #11
  call void @llvm.lifetime.end.p0(i64 4, ptr %13) #11
  call void @llvm.lifetime.end.p0(i64 4, ptr %12) #11
  call void @llvm.lifetime.end.p0(i64 4, ptr %11) #11
  call void @llvm.lifetime.end.p0(i64 4, ptr %10) #11
  call void @llvm.lifetime.end.p0(i64 4, ptr %9) #11
  call void @llvm.lifetime.end.p0(i64 8, ptr %8) #11
  %173 = load i32, ptr %4, align 4
  ret i32 %173
}