; Function Attrs: nounwind uwtable
define internal range(i32 0, 2) i32 @IoCommandWriteVerilog(ptr noundef readonly captures(none) %0, i32 noundef %1, ptr noundef %2) #0 {
  tail call void (...) @Extra_UtilGetoptReset() #18
  br label %.outer

.outer:                                           ; preds = %17, %3
  %.056.ph = phi i32 [ %18, %17 ], [ 0, %3 ]
  %.054.ph = phi i32 [ %.054.ph129, %17 ], [ 0, %3 ]
  %.052.ph = phi i32 [ %.052.ph134, %17 ], [ 0, %3 ]
  %.050.ph = phi i32 [ %.050.ph138, %17 ], [ 0, %3 ]
  %.049.ph = phi i32 [ %.049, %17 ], [ -1, %3 ]
  br label %.outer128

.outer128:                                        ; preds = %.outer, %19
  %.054.ph129 = phi i32 [ %.054.ph, %.outer ], [ %20, %19 ]
  %.052.ph130 = phi i32 [ %.052.ph, %.outer ], [ %.052.ph134, %19 ]
  %.050.ph131 = phi i32 [ %.050.ph, %.outer ], [ %.050.ph138, %19 ]
  %.049.ph132 = phi i32 [ %.049.ph, %.outer ], [ %.049, %19 ]
  br label %.outer133

.outer133:                                        ; preds = %.outer128, %21
  %.052.ph134 = phi i32 [ %.052.ph130, %.outer128 ], [ %22, %21 ]
  %.050.ph135 = phi i32 [ %.050.ph131, %.outer128 ], [ %.050.ph138, %21 ]
  %.049.ph136 = phi i32 [ %.049.ph132, %.outer128 ], [ %.049, %21 ]
  br label %.outer137

.outer137:                                        ; preds = %.outer133, %23
  %.050.ph138 = phi i32 [ %.050.ph135, %.outer133 ], [ %24, %23 ]
  %.049.ph139 = phi i32 [ %.049.ph136, %.outer133 ], [ %.049, %23 ]
  br label %4

4:                                                ; preds = %.outer137, %9
  %.049 = phi i32 [ %14, %9 ], [ %.049.ph139, %.outer137 ]
  %5 = tail call i32 @Extra_UtilGetopt(i32 noundef %1, ptr noundef %2, ptr noundef nonnull @.str.360) #18
  switch i32 %5, label %.loopexit [
    i32 -1, label %25
    i32 75, label %6
    i32 102, label %17
    i32 97, label %19
    i32 109, label %21
    i32 110, label %23
  ]

6:                                                ; preds = %4
  %7 = load i32, ptr @globalUtilOptind, align 4, !tbaa !3
  %.not65 = icmp slt i32 %7, %1
  br i1 %.not65, label %9, label %8

8:                                                ; preds = %6
  tail call void (i32, ptr, ...) @Abc_Print(i32 noundef -1, ptr noundef nonnull @.str.291)
  br label %.loopexit

9:                                                ; preds = %6
  %10 = sext i32 %7 to i64
  %11 = getelementptr inbounds ptr, ptr %2, i64 %10
  %12 = load ptr, ptr %11, align 8, !tbaa !9
  %13 = tail call i64 @strtol(ptr noundef nonnull captures(none) %12, ptr noundef null, i32 noundef 10) #18
  %14 = trunc i64 %13 to i32
  %15 = add nsw i32 %7, 1
  store i32 %15, ptr @globalUtilOptind, align 4, !tbaa !3
  %16 = add i32 %14, -7
  %or.cond = icmp ult i32 %16, -5
  br i1 %or.cond, label %.loopexit, label %4, !llvm.loop !101

17:                                               ; preds = %4
  %18 = xor i32 %.056.ph, 1
  br label %.outer, !llvm.loop !101

19:                                               ; preds = %4
  %20 = xor i32 %.054.ph129, 1
  br label %.outer128, !llvm.loop !101

21:                                               ; preds = %4
  %22 = xor i32 %.052.ph134, 1
  br label %.outer133, !llvm.loop !101

23:                                               ; preds = %4
  %24 = xor i32 %.050.ph138, 1
  br label %.outer137, !llvm.loop !101

25:                                               ; preds = %4
  %26 = getelementptr inbounds nuw i8, ptr %0, i64 48
  %27 = load ptr, ptr %26, align 8, !tbaa !49
  %28 = icmp eq ptr %27, null
  br i1 %28, label %29, label %33

29:                                               ; preds = %25
  %30 = getelementptr inbounds nuw i8, ptr %0, i64 128
  %31 = load ptr, ptr %30, align 8, !tbaa !50
  %32 = tail call i64 @fwrite(ptr nonnull @.str.142, i64 15, i64 1, ptr %31)
  br label %71

33:                                               ; preds = %25
  %34 = load i32, ptr @globalUtilOptind, align 4, !tbaa !3
  %35 = add nsw i32 %34, 1
  %.not61 = icmp eq i32 %1, %35
  br i1 %.not61, label %36, label %.loopexit

36:                                               ; preds = %33
  %.not62 = icmp eq i32 %.056.ph, 0
  %spec.select = select i1 %.not62, i32 %.049, i32 6
  %37 = sext i32 %34 to i64
  %38 = getelementptr inbounds ptr, ptr %2, i64 %37
  %39 = load ptr, ptr %38, align 8, !tbaa !9
  %40 = icmp sgt i32 %spec.select, 1
  br i1 %40, label %41, label %42

41:                                               ; preds = %36
  tail call void @Io_WriteVerilogLut(ptr noundef nonnull %27, ptr noundef %39, i32 noundef %spec.select, i32 noundef %.056.ph, i32 noundef %.052.ph134, i32 noundef %.050.ph138) #18
  br label %71

42:                                               ; preds = %36
  %43 = tail call ptr @Abc_NtkToNetlist(ptr noundef nonnull %27) #18
  %44 = getelementptr i8, ptr %43, i64 4
  %.val = load i32, ptr %44, align 4, !tbaa !100
  %.val.off = add i32 %.val, -3
  %switch = icmp ult i32 %.val.off, 2
  br i1 %switch, label %47, label %45

45:                                               ; preds = %42
  %46 = tail call i32 @Abc_NtkToAig(ptr noundef nonnull %43) #18
  br label %47

47:                                               ; preds = %42, %45
  tail call void @Io_WriteVerilog(ptr noundef nonnull %43, ptr noundef %39, i32 noundef %.054.ph129, i32 noundef %.050.ph138) #18
  tail call void @Abc_NtkDelete(ptr noundef nonnull %43) #18
  br label %71

.loopexit:                                        ; preds = %4, %9, %33, %8
  %48 = getelementptr inbounds nuw i8, ptr %0, i64 136
  %49 = load ptr, ptr %48, align 8, !tbaa !34
  %50 = tail call i64 @fwrite(ptr nonnull @.str.361, i64 46, i64 1, ptr %49)
  %51 = load ptr, ptr %48, align 8, !tbaa !34
  %52 = tail call i64 @fwrite(ptr nonnull @.str.362, i64 55, i64 1, ptr %51)
  %53 = load ptr, ptr %48, align 8, !tbaa !34
  %54 = tail call i64 @fwrite(ptr nonnull @.str.363, i64 89, i64 1, ptr %53)
  %55 = load ptr, ptr %48, align 8, !tbaa !34
  %.not66 = icmp eq i32 %.056.ph, 0
  %56 = select i1 %.not66, ptr @.str.114, ptr @.str.113
  %57 = tail call i32 (ptr, ptr, ...) @fprintf(ptr noundef %55, ptr noundef nonnull @.str.364, ptr noundef nonnull %56) #18
  %58 = load ptr, ptr %48, align 8, !tbaa !34
  %.not67 = icmp eq i32 %.054.ph129, 0
  %59 = select i1 %.not67, ptr @.str.114, ptr @.str.113
  %60 = tail call i32 (ptr, ptr, ...) @fprintf(ptr noundef %58, ptr noundef nonnull @.str.365, ptr noundef nonnull %59) #18
  %61 = load ptr, ptr %48, align 8, !tbaa !34
  %.not68 = icmp eq i32 %.052.ph134, 0
  %62 = select i1 %.not68, ptr @.str.113, ptr @.str.114
  %63 = tail call i32 (ptr, ptr, ...) @fprintf(ptr noundef %61, ptr noundef nonnull @.str.366, ptr noundef nonnull %62) #18
  %64 = load ptr, ptr %48, align 8, !tbaa !34
  %.not69 = icmp eq i32 %.050.ph138, 0
  %65 = select i1 %.not69, ptr @.str.114, ptr @.str.113
  %66 = tail call i32 (ptr, ptr, ...) @fprintf(ptr noundef %64, ptr noundef nonnull @.str.367, ptr noundef nonnull %65) #18
  %67 = load ptr, ptr %48, align 8, !tbaa !34
  %68 = tail call i64 @fwrite(ptr nonnull @.str.233, i64 33, i64 1, ptr %67)
  %69 = load ptr, ptr %48, align 8, !tbaa !34
  %70 = tail call i64 @fwrite(ptr nonnull @.str.234, i64 40, i64 1, ptr %69)
  br label %71

71:                                               ; preds = %41, %47, %.loopexit, %29
  %.0 = phi i32 [ 1, %.loopexit ], [ 0, %29 ], [ 0, %47 ], [ 0, %41 ]
  ret i32 %.0
}